target datalayout = "e-m:e-p270:32:32-p271:32:32-p272:64:64-i64:64-i128:128-f80:128-n8:16:32:64-S128"
target triple = "x86_64-pc-linux-gnu"

%struct.hwloc_internal_distances_s = type { ptr, i32, i32, ptr, i32, ptr, ptr, i64, i32, ptr, ptr, ptr }

; Function Attrs: nounwind uwtable
define internal void @hwloc_backend_distances_add__cancel(ptr noundef %0) #0 {
  %2 = alloca ptr, align 8
  store ptr %0, ptr %2, align 8, !tbaa !46
  %3 = load ptr, ptr %2, align 8, !tbaa !46
  %4 = getelementptr inbounds nuw %struct.hwloc_internal_distances_s, ptr %3, i32 0, i32 0
  %5 = load ptr, ptr %4, align 8, !tbaa !53
  call void @free(ptr noundef %5) #15
  %6 = load ptr, ptr %2, align 8, !tbaa !46
  %7 = getelementptr inbounds nuw %struct.hwloc_internal_distances_s, ptr %6, i32 0, i32 5
  %8 = load ptr, ptr %7, align 8, !tbaa !55
  call void @free(ptr noundef %8) #15
  %9 = load ptr, ptr %2, align 8, !tbaa !46
  %10 = getelementptr inbounds nuw %struct.hwloc_internal_distances_s, ptr %9, i32 0, i32 9
  %11 = load ptr, ptr %10, align 8, !tbaa !56
  call void @free(ptr noundef %11) #15
  %12 = load ptr, ptr %2, align 8, !tbaa !46
  %13 = getelementptr inbounds nuw %struct.hwloc_internal_distances_s, ptr %12, i32 0, i32 3
  %14 = load ptr, ptr %13, align 8, !tbaa !54
  call void @free(ptr noundef %14) #15
  %15 = load ptr, ptr %2, align 8, !tbaa !46
  %16 = getelementptr inbounds nuw %struct.hwloc_internal_distances_s, ptr %15, i32 0, i32 6
  %17 = load ptr, ptr %16, align 8, !tbaa !57
  call void @free(ptr noundef %17) #15
  %18 = load ptr, ptr %2, align 8, !tbaa !46
  call void @free(ptr noundef %18) #15
  ret void
}

; Function Attrs: nounwind uwtable
define i32 @hwloc_distances_add_commit(ptr noundef %0, ptr noundef %1, i64 noundef %2) #0 {
  %4 = alloca i32, align 4
  %5 = alloca ptr, align 8
  %6 = alloca ptr, align 8
  %7 = alloca i64, align 8
  %8 = alloca i32, align 4
  %9 = alloca i32, align 4
  store ptr %0, ptr %5, align 8, !tbaa !3
  store ptr %1, ptr %6, align 8, !tbaa !81
  store i64 %2, ptr %7, align 8, !tbaa !80
  call void @llvm.lifetime.start.p0(i64 4, ptr %8) #15
  %10 = load i64, ptr %7, align 8, !tbaa !80
  %11 = and i64 %10, -4
  %12 = icmp ne i64 %11, 0
  br i1 %12, label %13, label %15

13:                                               ; preds = %3
  %14 = call ptr @__errno_location() #17
  store i32 22, ptr %14, align 4, !tbaa !38
  br label %26

15:                                               ; preds = %3
  %16 = load ptr, ptr %5, align 8, !tbaa !3
  %17 = load ptr, ptr %6, align 8, !tbaa !81
  %18 = load i64, ptr %7, align 8, !tbaa !80
  %19 = call i32 @hwloc_backend_distances_add_commit(ptr noundef %16, ptr noundef %17, i64 noundef %18)
  store i32 %19, ptr %8, align 4, !tbaa !38
  %20 = load i32, ptr %8, align 4, !tbaa !38
  %21 = icmp slt i32 %20, 0
  br i1 %21, label %22, label %23

22:                                               ; preds = %15
  store ptr null, ptr %6, align 8, !tbaa !81
  br label %26

23:                                               ; preds = %15
  %24 = load ptr, ptr %5, align 8, !tbaa !3
  %25 = call i32 @hwloc__reconnect(ptr noundef %24, i64 noundef 0)
  store i32 0, ptr %4, align 4
  store i32 1, ptr %9, align 4
  br label %32

26:                                               ; preds = %22, %13
  %27 = load ptr, ptr %6, align 8, !tbaa !81
  %28 = icmp ne ptr %27, null
  br i1 %28, label %29, label %31

29:                                               ; preds = %26
  %30 = load ptr, ptr %6, align 8, !tbaa !81
  call void @hwloc_backend_distances_add__cancel(ptr noundef %30)
  br label %31

31:                                               ; preds = %29, %26
  store i32 -1, ptr %4, align 4
  store i32 1, ptr %9, align 4
  br label %32

32:                                               ; preds = %31, %23
  call void @llvm.lifetime.end.p0(i64 4, ptr %8) #15
  %33 = load i32, ptr %4, align 4
  ret i32 %33
}