; Function Attrs: nounwind uwtable
define range(i32 -1, 1) i32 @hwloc_distances_add_commit(ptr noundef %0, ptr noundef %1, i64 noundef %2) local_unnamed_addr #1 {
  %.not = icmp ult i64 %2, 4
  br i1 %.not, label %4, label %9

4:                                                ; preds = %3
  %5 = tail call i32 @hwloc_backend_distances_add_commit(ptr noundef %0, ptr noundef %1, i64 noundef %2)
  %6 = icmp slt i32 %5, 0
  br i1 %6, label %.thread, label %7

7:                                                ; preds = %4
  %8 = tail call i32 @hwloc__reconnect(ptr noundef %0, i64 noundef 0) #27
  br label %.thread

9:                                                ; preds = %3
  %10 = tail call ptr @__errno_location() #30
  store i32 22, ptr %10, align 4, !tbaa !3
  %.not9 = icmp eq ptr %1, null
  br i1 %.not9, label %.thread, label %11

11:                                               ; preds = %9
  %12 = load ptr, ptr %1, align 8, !tbaa !43
  tail call void @free(ptr noundef %12) #27
  %13 = getelementptr inbounds nuw i8, ptr %1, i64 32
  %14 = load ptr, ptr %13, align 8, !tbaa !45
  tail call void @free(ptr noundef %14) #27
  %15 = getelementptr inbounds nuw i8, ptr %1, i64 64
  %16 = load ptr, ptr %15, align 8, !tbaa !46
  tail call void @free(ptr noundef %16) #27
  %17 = getelementptr inbounds nuw i8, ptr %1, i64 16
  %18 = load ptr, ptr %17, align 8, !tbaa !44
  tail call void @free(ptr noundef %18) #27
  %19 = getelementptr inbounds nuw i8, ptr %1, i64 40
  %20 = load ptr, ptr %19, align 8, !tbaa !47
  tail call void @free(ptr noundef %20) #27
  tail call void @free(ptr noundef nonnull %1) #27
  br label %.thread

.thread:                                          ; preds = %4, %9, %11, %7
  %.0 = phi i32 [ 0, %7 ], [ -1, %11 ], [ -1, %9 ], [ -1, %4 ]
  ret i32 %.0
}